target datalayout = "e-m:e-p270:32:32-p271:32:32-p272:64:64-i64:64-i128:128-f80:128-n8:16:32:64-S128"
target triple = "x86_64-pc-linux-gnu"

%struct.scan_ctx = type { ptr, i64, ptr, i64, ptr, i64, i64, [40 x i8], [160 x i8], i8 }

@stdout = external global ptr, align 8

; Function Attrs: nounwind uwtable
define dso_local zeroext i1 @helpscan(ptr noundef %0, i64 noundef %1, ptr noundef %2) #0 {
  %4 = alloca i1, align 1
  %5 = alloca ptr, align 8
  %6 = alloca i64, align 8
  %7 = alloca ptr, align 8
  %8 = alloca i64, align 8
  %9 = alloca i32, align 4
  store ptr %0, ptr %5, align 8, !tbaa !9
  store i64 %1, ptr %6, align 8, !tbaa !21
  store ptr %2, ptr %7, align 8, !tbaa !4
  call void @llvm.lifetime.start.p0(i64 8, ptr %8) #9
  store i64 0, ptr %8, align 8, !tbaa !21
  br label %10

10:                                               ; preds = %195, %3
  %11 = load i64, ptr %8, align 8, !tbaa !21
  %12 = load i64, ptr %6, align 8, !tbaa !21
  %13 = icmp ult i64 %11, %12
  br i1 %13, label %14, label %198

14:                                               ; preds = %10
  %15 = load ptr, ptr %7, align 8, !tbaa !4
  %16 = getelementptr inbounds nuw %struct.scan_ctx, ptr %15, i32 0, i32 9
  %17 = load i8, ptr %16, align 8, !tbaa !19
  %18 = icmp ne i8 %17, 0
  br i1 %18, label %58, label %19

19:                                               ; preds = %14
  %20 = load ptr, ptr %7, align 8, !tbaa !4
  %21 = getelementptr inbounds nuw %struct.scan_ctx, ptr %20, i32 0, i32 7
  %22 = getelementptr inbounds [40 x i8], ptr %21, i64 0, i64 0
  %23 = load ptr, ptr %7, align 8, !tbaa !4
  %24 = getelementptr inbounds nuw %struct.scan_ctx, ptr %23, i32 0, i32 7
  %25 = getelementptr inbounds [40 x i8], ptr %24, i64 0, i64 1
  %26 = load ptr, ptr %7, align 8, !tbaa !4
  %27 = getelementptr inbounds nuw %struct.scan_ctx, ptr %26, i32 0, i32 1
  %28 = load i64, ptr %27, align 8, !tbaa !14
  %29 = sub i64 %28, 1
  call void @llvm.memmove.p0.p0.i64(ptr align 8 %22, ptr align 1 %25, i64 %29, i1 false)
  %30 = load ptr, ptr %5, align 8, !tbaa !9
  %31 = load i64, ptr %8, align 8, !tbaa !21
  %32 = getelementptr inbounds nuw i8, ptr %30, i64 %31
  %33 = load i8, ptr %32, align 1, !tbaa !22
  %34 = load ptr, ptr %7, align 8, !tbaa !4
  %35 = getelementptr inbounds nuw %struct.scan_ctx, ptr %34, i32 0, i32 7
  %36 = load ptr, ptr %7, align 8, !tbaa !4
  %37 = getelementptr inbounds nuw %struct.scan_ctx, ptr %36, i32 0, i32 1
  %38 = load i64, ptr %37, align 8, !tbaa !14
  %39 = sub i64 %38, 1
  %40 = getelementptr inbounds nuw [40 x i8], ptr %35, i64 0, i64 %39
  store i8 %33, ptr %40, align 1, !tbaa !22
  %41 = load ptr, ptr %7, align 8, !tbaa !4
  %42 = getelementptr inbounds nuw %struct.scan_ctx, ptr %41, i32 0, i32 7
  %43 = getelementptr inbounds [40 x i8], ptr %42, i64 0, i64 0
  %44 = load ptr, ptr %7, align 8, !tbaa !4
  %45 = getelementptr inbounds nuw %struct.scan_ctx, ptr %44, i32 0, i32 0
  %46 = load ptr, ptr %45, align 8, !tbaa !11
  %47 = load ptr, ptr %7, align 8, !tbaa !4
  %48 = getelementptr inbounds nuw %struct.scan_ctx, ptr %47, i32 0, i32 1
  %49 = load i64, ptr %48, align 8, !tbaa !14
  %50 = call i32 @memcmp(ptr noundef %43, ptr noundef %46, i64 noundef %49) #8
  %51 = icmp ne i32 %50, 0
  br i1 %51, label %57, label %52

52:                                               ; preds = %19
  %53 = load ptr, ptr %7, align 8, !tbaa !4
  %54 = getelementptr inbounds nuw %struct.scan_ctx, ptr %53, i32 0, i32 9
  %55 = load i8, ptr %54, align 8, !tbaa !19
  %56 = add i8 %55, 1
  store i8 %56, ptr %54, align 8, !tbaa !19
  br label %57

57:                                               ; preds = %52, %19
  br label %195

58:                                               ; preds = %14
  %59 = load ptr, ptr %7, align 8, !tbaa !4
  %60 = getelementptr inbounds nuw %struct.scan_ctx, ptr %59, i32 0, i32 9
  %61 = load i8, ptr %60, align 8, !tbaa !19
  %62 = zext i8 %61 to i32
  %63 = icmp eq i32 %62, 1
  br i1 %63, label %64, label %109

64:                                               ; preds = %58
  %65 = load ptr, ptr %7, align 8, !tbaa !4
  %66 = getelementptr inbounds nuw %struct.scan_ctx, ptr %65, i32 0, i32 7
  %67 = getelementptr inbounds [40 x i8], ptr %66, i64 0, i64 0
  %68 = load ptr, ptr %7, align 8, !tbaa !4
  %69 = getelementptr inbounds nuw %struct.scan_ctx, ptr %68, i32 0, i32 7
  %70 = getelementptr inbounds [40 x i8], ptr %69, i64 0, i64 1
  %71 = load ptr, ptr %7, align 8, !tbaa !4
  %72 = getelementptr inbounds nuw %struct.scan_ctx, ptr %71, i32 0, i32 3
  %73 = load i64, ptr %72, align 8, !tbaa !16
  %74 = sub i64 %73, 1
  call void @llvm.memmove.p0.p0.i64(ptr align 8 %67, ptr align 1 %70, i64 %74, i1 false)
  %75 = load ptr, ptr %5, align 8, !tbaa !9
  %76 = load i64, ptr %8, align 8, !tbaa !21
  %77 = getelementptr inbounds nuw i8, ptr %75, i64 %76
  %78 = load i8, ptr %77, align 1, !tbaa !22
  %79 = load ptr, ptr %7, align 8, !tbaa !4
  %80 = getelementptr inbounds nuw %struct.scan_ctx, ptr %79, i32 0, i32 7
  %81 = load ptr, ptr %7, align 8, !tbaa !4
  %82 = getelementptr inbounds nuw %struct.scan_ctx, ptr %81, i32 0, i32 3
  %83 = load i64, ptr %82, align 8, !tbaa !16
  %84 = sub i64 %83, 1
  %85 = getelementptr inbounds nuw [40 x i8], ptr %80, i64 0, i64 %84
  store i8 %78, ptr %85, align 1, !tbaa !22
  %86 = load ptr, ptr %7, align 8, !tbaa !4
  %87 = getelementptr inbounds nuw %struct.scan_ctx, ptr %86, i32 0, i32 7
  %88 = getelementptr inbounds [40 x i8], ptr %87, i64 0, i64 0
  %89 = load ptr, ptr %7, align 8, !tbaa !4
  %90 = getelementptr inbounds nuw %struct.scan_ctx, ptr %89, i32 0, i32 2
  %91 = load ptr, ptr %90, align 8, !tbaa !15
  %92 = load ptr, ptr %7, align 8, !tbaa !4
  %93 = getelementptr inbounds nuw %struct.scan_ctx, ptr %92, i32 0, i32 3
  %94 = load i64, ptr %93, align 8, !tbaa !16
  %95 = call i32 @memcmp(ptr noundef %88, ptr noundef %91, i64 noundef %94) #8
  %96 = icmp ne i32 %95, 0
  br i1 %96, label %108, label %97

97:                                               ; preds = %64
  %98 = load ptr, ptr %7, align 8, !tbaa !4
  %99 = getelementptr inbounds nuw %struct.scan_ctx, ptr %98, i32 0, i32 2
  %100 = load ptr, ptr %99, align 8, !tbaa !15
  %101 = getelementptr inbounds i8, ptr %100, i64 1
  %102 = load ptr, ptr @stdout, align 8, !tbaa !23
  %103 = call i32 @fputs(ptr noundef %101, ptr noundef %102)
  %104 = load ptr, ptr %7, align 8, !tbaa !4
  %105 = getelementptr inbounds nuw %struct.scan_ctx, ptr %104, i32 0, i32 9
  %106 = load i8, ptr %105, align 8, !tbaa !19
  %107 = add i8 %106, 1
  store i8 %107, ptr %105, align 8, !tbaa !19
  br label %108

108:                                              ; preds = %97, %64
  br label %195

109:                                              ; preds = %58
  %110 = load ptr, ptr %7, align 8, !tbaa !4
  %111 = getelementptr inbounds nuw %struct.scan_ctx, ptr %110, i32 0, i32 7
  %112 = getelementptr inbounds [40 x i8], ptr %111, i64 0, i64 0
  %113 = load ptr, ptr %7, align 8, !tbaa !4
  %114 = getelementptr inbounds nuw %struct.scan_ctx, ptr %113, i32 0, i32 7
  %115 = getelementptr inbounds [40 x i8], ptr %114, i64 0, i64 1
  %116 = load ptr, ptr %7, align 8, !tbaa !4
  %117 = getelementptr inbounds nuw %struct.scan_ctx, ptr %116, i32 0, i32 5
  %118 = load i64, ptr %117, align 8, !tbaa !18
  %119 = sub i64 %118, 1
  call void @llvm.memmove.p0.p0.i64(ptr align 8 %112, ptr align 1 %115, i64 %119, i1 false)
  %120 = load ptr, ptr %5, align 8, !tbaa !9
  %121 = load i64, ptr %8, align 8, !tbaa !21
  %122 = getelementptr inbounds nuw i8, ptr %120, i64 %121
  %123 = load i8, ptr %122, align 1, !tbaa !22
  %124 = load ptr, ptr %7, align 8, !tbaa !4
  %125 = getelementptr inbounds nuw %struct.scan_ctx, ptr %124, i32 0, i32 7
  %126 = load ptr, ptr %7, align 8, !tbaa !4
  %127 = getelementptr inbounds nuw %struct.scan_ctx, ptr %126, i32 0, i32 5
  %128 = load i64, ptr %127, align 8, !tbaa !18
  %129 = sub i64 %128, 1
  %130 = getelementptr inbounds nuw [40 x i8], ptr %125, i64 0, i64 %129
  store i8 %123, ptr %130, align 1, !tbaa !22
  %131 = load ptr, ptr %7, align 8, !tbaa !4
  %132 = getelementptr inbounds nuw %struct.scan_ctx, ptr %131, i32 0, i32 7
  %133 = getelementptr inbounds [40 x i8], ptr %132, i64 0, i64 0
  %134 = load ptr, ptr %7, align 8, !tbaa !4
  %135 = getelementptr inbounds nuw %struct.scan_ctx, ptr %134, i32 0, i32 4
  %136 = load ptr, ptr %135, align 8, !tbaa !17
  %137 = load ptr, ptr %7, align 8, !tbaa !4
  %138 = getelementptr inbounds nuw %struct.scan_ctx, ptr %137, i32 0, i32 5
  %139 = load i64, ptr %138, align 8, !tbaa !18
  %140 = call i32 @memcmp(ptr noundef %133, ptr noundef %136, i64 noundef %139) #8
  %141 = icmp ne i32 %140, 0
  br i1 %141, label %143, label %142

142:                                              ; preds = %109
  store i1 false, ptr %4, align 1
  store i32 1, ptr %9, align 4
  br label %199

143:                                              ; preds = %109
  %144 = load ptr, ptr %5, align 8, !tbaa !9
  %145 = load i64, ptr %8, align 8, !tbaa !21
  %146 = getelementptr inbounds nuw i8, ptr %144, i64 %145
  %147 = load i8, ptr %146, align 1, !tbaa !22
  %148 = zext i8 %147 to i32
  %149 = icmp eq i32 %148, 10
  br i1 %149, label %150, label %173

150:                                              ; preds = %143
  br label %151

151:                                              ; preds = %150
  br label %152

152:                                              ; preds = %151
  br label %153

153:                                              ; preds = %152
  %154 = load ptr, ptr %7, align 8, !tbaa !4
  %155 = getelementptr inbounds nuw %struct.scan_ctx, ptr %154, i32 0, i32 6
  %156 = load i64, ptr %155, align 8, !tbaa !20
  %157 = icmp eq i64 %156, 160
  br i1 %157, label %158, label %159

158:                                              ; preds = %153
  store i1 false, ptr %4, align 1
  store i32 1, ptr %9, align 4
  br label %199

159:                                              ; preds = %153
  %160 = load ptr, ptr %7, align 8, !tbaa !4
  %161 = getelementptr inbounds nuw %struct.scan_ctx, ptr %160, i32 0, i32 8
  %162 = load ptr, ptr %7, align 8, !tbaa !4
  %163 = getelementptr inbounds nuw %struct.scan_ctx, ptr %162, i32 0, i32 6
  %164 = load i64, ptr %163, align 8, !tbaa !20
  %165 = add i64 %164, 1
  store i64 %165, ptr %163, align 8, !tbaa !20
  %166 = getelementptr inbounds nuw [160 x i8], ptr %161, i64 0, i64 %164
  store i8 0, ptr %166, align 1, !tbaa !22
  %167 = load ptr, ptr %7, align 8, !tbaa !4
  %168 = getelementptr inbounds nuw %struct.scan_ctx, ptr %167, i32 0, i32 6
  store i64 0, ptr %168, align 8, !tbaa !20
  %169 = load ptr, ptr %7, align 8, !tbaa !4
  %170 = getelementptr inbounds nuw %struct.scan_ctx, ptr %169, i32 0, i32 8
  %171 = getelementptr inbounds [160 x i8], ptr %170, i64 0, i64 0
  %172 = call i32 @puts(ptr noundef %171)
  br label %194

173:                                              ; preds = %143
  br label %174

174:                                              ; preds = %173
  br label %175

175:                                              ; preds = %174
  br label %176

176:                                              ; preds = %175
  %177 = load ptr, ptr %7, align 8, !tbaa !4
  %178 = getelementptr inbounds nuw %struct.scan_ctx, ptr %177, i32 0, i32 6
  %179 = load i64, ptr %178, align 8, !tbaa !20
  %180 = icmp eq i64 %179, 160
  br i1 %180, label %181, label %182

181:                                              ; preds = %176
  store i1 false, ptr %4, align 1
  store i32 1, ptr %9, align 4
  br label %199

182:                                              ; preds = %176
  %183 = load ptr, ptr %5, align 8, !tbaa !9
  %184 = load i64, ptr %8, align 8, !tbaa !21
  %185 = getelementptr inbounds nuw i8, ptr %183, i64 %184
  %186 = load i8, ptr %185, align 1, !tbaa !22
  %187 = load ptr, ptr %7, align 8, !tbaa !4
  %188 = getelementptr inbounds nuw %struct.scan_ctx, ptr %187, i32 0, i32 8
  %189 = load ptr, ptr %7, align 8, !tbaa !4
  %190 = getelementptr inbounds nuw %struct.scan_ctx, ptr %189, i32 0, i32 6
  %191 = load i64, ptr %190, align 8, !tbaa !20
  %192 = add i64 %191, 1
  store i64 %192, ptr %190, align 8, !tbaa !20
  %193 = getelementptr inbounds nuw [160 x i8], ptr %188, i64 0, i64 %191
  store i8 %186, ptr %193, align 1, !tbaa !22
  br label %194

194:                                              ; preds = %182, %159
  br label %195

195:                                              ; preds = %194, %108, %57
  %196 = load i64, ptr %8, align 8, !tbaa !21
  %197 = add i64 %196, 1
  store i64 %197, ptr %8, align 8, !tbaa !21
  br label %10, !llvm.loop !25

198:                                              ; preds = %10
  store i1 true, ptr %4, align 1
  store i32 1, ptr %9, align 4
  br label %199

199:                                              ; preds = %198, %181, %158, %142
  call void @llvm.lifetime.end.p0(i64 8, ptr %8) #9
  %200 = load i1, ptr %4, align 1
  ret i1 %200
}