; Function Attrs: nofree nounwind uwtable
define dso_local noundef zeroext i1 @helpscan(ptr noundef readonly captures(none) %0, i64 noundef %1, ptr noundef captures(none) %2) local_unnamed_addr #3 {
  %4 = getelementptr inbounds nuw i8, ptr %2, i64 56
  %5 = getelementptr inbounds nuw i8, ptr %2, i64 57
  %6 = getelementptr inbounds nuw i8, ptr %2, i64 40
  %7 = getelementptr inbounds nuw i8, ptr %2, i64 48
  %8 = icmp eq i64 %1, 0
  br i1 %8, label %._crit_edge, label %.lr.ph

.lr.ph:                                           ; preds = %3
  %9 = getelementptr inbounds nuw i8, ptr %2, i64 256
  %10 = getelementptr inbounds nuw i8, ptr %2, i64 24
  %11 = getelementptr inbounds nuw i8, ptr %2, i64 16
  %12 = getelementptr inbounds nuw i8, ptr %2, i64 8
  %13 = getelementptr inbounds nuw i8, ptr %2, i64 32
  %14 = getelementptr inbounds nuw i8, ptr %2, i64 96
  br label %15

15:                                               ; preds = %.lr.ph, %60
  %.059 = phi i64 [ 0, %.lr.ph ], [ %61, %60 ]
  %16 = load i8, ptr %9, align 8, !tbaa !16
  %17 = getelementptr inbounds nuw i8, ptr %0, i64 %.059
  switch i8 %16, label %41 [
    i8 0, label %18
    i8 1, label %28
  ]

18:                                               ; preds = %15
  %19 = load i64, ptr %12, align 8, !tbaa !11
  %20 = add i64 %19, -1
  tail call void @llvm.memmove.p0.p0.i64(ptr nonnull align 8 %4, ptr nonnull align 1 %5, i64 %20, i1 false)
  %21 = load i8, ptr %17, align 1, !tbaa !17
  %22 = getelementptr inbounds nuw [40 x i8], ptr %4, i64 0, i64 %20
  store i8 %21, ptr %22, align 1, !tbaa !17
  %23 = load ptr, ptr %2, align 8, !tbaa !4
  %24 = load i64, ptr %12, align 8, !tbaa !11
  %bcmp = tail call i32 @bcmp(ptr nonnull %4, ptr %23, i64 %24)
  %.not54 = icmp eq i32 %bcmp, 0
  br i1 %.not54, label %25, label %60

25:                                               ; preds = %18
  %26 = load i8, ptr %9, align 8, !tbaa !16
  %27 = add i8 %26, 1
  store i8 %27, ptr %9, align 8, !tbaa !16
  br label %60

28:                                               ; preds = %15
  %29 = load i64, ptr %10, align 8, !tbaa !13
  %30 = add i64 %29, -1
  tail call void @llvm.memmove.p0.p0.i64(ptr nonnull align 8 %4, ptr nonnull align 1 %5, i64 %30, i1 false)
  %31 = load i8, ptr %17, align 1, !tbaa !17
  %32 = getelementptr inbounds nuw [40 x i8], ptr %4, i64 0, i64 %30
  store i8 %31, ptr %32, align 1, !tbaa !17
  %33 = load ptr, ptr %11, align 8, !tbaa !12
  %34 = load i64, ptr %10, align 8, !tbaa !13
  %bcmp57 = tail call i32 @bcmp(ptr nonnull %4, ptr %33, i64 %34)
  %.not58 = icmp eq i32 %bcmp57, 0
  br i1 %.not58, label %35, label %60

35:                                               ; preds = %28
  %36 = getelementptr inbounds nuw i8, ptr %33, i64 1
  %37 = load ptr, ptr @stdout, align 8, !tbaa !18
  %38 = tail call i32 @fputs(ptr noundef nonnull %36, ptr noundef %37)
  %39 = load i8, ptr %9, align 8, !tbaa !16
  %40 = add i8 %39, 1
  store i8 %40, ptr %9, align 8, !tbaa !16
  br label %60

41:                                               ; preds = %15
  %42 = load i64, ptr %6, align 8, !tbaa !15
  %43 = add i64 %42, -1
  tail call void @llvm.memmove.p0.p0.i64(ptr nonnull align 8 %4, ptr nonnull align 1 %5, i64 %43, i1 false)
  %44 = load i8, ptr %17, align 1, !tbaa !17
  %45 = getelementptr inbounds nuw [40 x i8], ptr %4, i64 0, i64 %43
  store i8 %44, ptr %45, align 1, !tbaa !17
  %46 = load ptr, ptr %13, align 8, !tbaa !14
  %47 = load i64, ptr %6, align 8, !tbaa !15
  %bcmp55 = tail call i32 @bcmp(ptr nonnull %4, ptr %46, i64 %47)
  %.not56 = icmp eq i32 %bcmp55, 0
  br i1 %.not56, label %._crit_edge, label %48

48:                                               ; preds = %41
  %49 = icmp eq i8 %44, 10
  %50 = load i64, ptr %7, align 8, !tbaa !20
  %51 = icmp eq i64 %50, 160
  br i1 %49, label %52, label %56

52:                                               ; preds = %48
  br i1 %51, label %._crit_edge, label %53

53:                                               ; preds = %52
  %54 = getelementptr inbounds nuw [160 x i8], ptr %14, i64 0, i64 %50
  store i8 0, ptr %54, align 1, !tbaa !17
  store i64 0, ptr %7, align 8, !tbaa !20
  %55 = tail call i32 @puts(ptr noundef nonnull dereferenceable(1) %14)
  br label %60

56:                                               ; preds = %48
  br i1 %51, label %._crit_edge, label %57

57:                                               ; preds = %56
  %58 = add i64 %50, 1
  store i64 %58, ptr %7, align 8, !tbaa !20
  %59 = getelementptr inbounds nuw [160 x i8], ptr %14, i64 0, i64 %50
  store i8 %44, ptr %59, align 1, !tbaa !17
  br label %60

60:                                               ; preds = %53, %57, %28, %35, %18, %25
  %61 = add nuw i64 %.059, 1
  %exitcond.not = icmp eq i64 %61, %1
  br i1 %exitcond.not, label %._crit_edge, label %15, !llvm.loop !21

._crit_edge:                                      ; preds = %41, %52, %56, %60, %3
  %.lcssa = phi i1 [ true, %3 ], [ true, %60 ], [ false, %56 ], [ false, %52 ], [ false, %41 ]
  ret i1 %.lcssa
}